target datalayout = "e-m:e-p270:32:32-p271:32:32-p272:64:64-i64:64-i128:128-f80:128-n8:16:32:64-S128"
target triple = "x86_64-pc-linux-gnu"

%class.btSequentialImpulseConstraintSolverMt = type { %class.btSequentialImpulseConstraintSolver, %struct.btBatchedConstraints, %struct.btBatchedConstraints, i32, i8, i8, [2 x i8], %class.btAlignedObjectArray.10, %class.btAlignedObjectArray.2, %class.btSpinMutex, [64 x i8], %class.btSpinMutex, %class.btAlignedObjectArray.8 }
%class.btSequentialImpulseConstraintSolver = type { %class.btConstraintSolver, %class.btAlignedObjectArray, %class.btAlignedObjectArray.0, %class.btAlignedObjectArray.0, %class.btAlignedObjectArray.0, %class.btAlignedObjectArray.0, %class.btAlignedObjectArray.2, %class.btAlignedObjectArray.2, %class.btAlignedObjectArray.2, %class.btAlignedObjectArray.4, i32, i32, %class.btAlignedObjectArray.2, ptr, ptr, ptr, i32, float, i64, %struct.btSolverAnalyticsData }
%class.btConstraintSolver = type { ptr }
%class.btAlignedObjectArray = type <{ [4 x i8], i32, i32, [4 x i8], ptr, i8, [7 x i8] }>
%class.btAlignedObjectArray.0 = type <{ [4 x i8], i32, i32, [4 x i8], ptr, i8, [7 x i8] }>
%class.btAlignedObjectArray.4 = type <{ [4 x i8], i32, i32, [4 x i8], ptr, i8, [7 x i8] }>
%struct.btSolverAnalyticsData = type { i32, i32, i32, i32, i32, double }
%struct.btBatchedConstraints = type { %class.btAlignedObjectArray.2, %class.btAlignedObjectArray.6, %class.btAlignedObjectArray.6, %class.btAlignedObjectArray.8, %class.btAlignedObjectArray.2, ptr }
%class.btAlignedObjectArray.6 = type <{ [4 x i8], i32, i32, [4 x i8], ptr, i8, [7 x i8] }>
%class.btAlignedObjectArray.10 = type <{ [4 x i8], i32, i32, [4 x i8], ptr, i8, [7 x i8] }>
%class.btAlignedObjectArray.2 = type <{ [4 x i8], i32, i32, [4 x i8], ptr, i8, [7 x i8] }>
%class.btSpinMutex = type { i32 }
%class.btAlignedObjectArray.8 = type <{ [4 x i8], i32, i32, [4 x i8], ptr, i8, [7 x i8] }>
%class.CProfileSample = type { i8 }
%"struct.btBatchedConstraints::Range" = type { i32, i32 }
%class.btIParallelSumBody = type { ptr }
%struct.JointSolverLoop = type <{ %class.btIParallelSumBody, ptr, ptr, i32, [4 x i8] }>

@.str.15 = private unnamed_addr constant [27 x i8] c"resolveAllJointConstraints\00", align 1
@_ZTV18btIParallelSumBody = linkonce_odr dso_local unnamed_addr constant { [5 x ptr] } { [5 x ptr] [ptr null, ptr @_ZTI18btIParallelSumBody, ptr @_ZN18btIParallelSumBodyD2Ev, ptr @_ZN18btIParallelSumBodyD0Ev, ptr @__cxa_pure_virtual] }, comdat, align 8
@_ZTV15JointSolverLoop = linkonce_odr dso_local unnamed_addr constant { [5 x ptr] } { [5 x ptr] [ptr null, ptr @_ZTI15JointSolverLoop, ptr @_ZN18btIParallelSumBodyD2Ev, ptr @_ZN15JointSolverLoopD0Ev, ptr @_ZNK15JointSolverLoop7sumLoopEii] }, comdat, align 8

; Function Attrs: inlinehint mustprogress nounwind uwtable
define linkonce_odr dso_local void @_ZN18btIParallelSumBodyC2Ev(ptr noundef nonnull align 8 dereferenceable(8) %0) unnamed_addr #4 comdat align 2 {
  %2 = alloca ptr, align 8
  store ptr %0, ptr %2, align 8, !tbaa !321
  %3 = load ptr, ptr %2, align 8
  store ptr getelementptr inbounds inrange(-16, 24) ({ [5 x ptr] }, ptr @_ZTV18btIParallelSumBody, i32 0, i32 0, i32 2), ptr %3, align 8, !tbaa !14
  ret void
}

; Function Attrs: mustprogress nounwind uwtable
define linkonce_odr dso_local void @_ZN18btIParallelSumBodyD2Ev(ptr noundef nonnull align 8 dereferenceable(8) %0) unnamed_addr #1 comdat align 2 {
  %2 = alloca ptr, align 8
  store ptr %0, ptr %2, align 8, !tbaa !321
  ret void
}

; Function Attrs: inlinehint mustprogress nounwind uwtable
define linkonce_odr dso_local noundef nonnull align 4 dereferenceable(8) ptr @_ZNK20btAlignedObjectArrayIN20btBatchedConstraints5RangeEEixEi(ptr noundef nonnull align 8 dereferenceable(25) %0, i32 noundef %1) #4 comdat align 2 {
  %3 = alloca ptr, align 8
  %4 = alloca i32, align 4
  store ptr %0, ptr %3, align 8, !tbaa !124
  store i32 %1, ptr %4, align 4, !tbaa !9
  %5 = load ptr, ptr %3, align 8
  %6 = getelementptr inbounds nuw %class.btAlignedObjectArray.6, ptr %5, i32 0, i32 4
  %7 = load ptr, ptr %6, align 8, !tbaa !127
  %8 = load i32, ptr %4, align 4, !tbaa !9
  %9 = sext i32 %8 to i64
  %10 = getelementptr inbounds %"struct.btBatchedConstraints::Range", ptr %7, i64 %9
  ret ptr %10
}

; Function Attrs: inlinehint mustprogress nounwind uwtable
define linkonce_odr dso_local noundef nonnull align 4 dereferenceable(4) ptr @_ZNK20btAlignedObjectArrayIiEixEi(ptr noundef nonnull align 8 dereferenceable(25) %0, i32 noundef %1) #4 comdat align 2 {
  %3 = alloca ptr, align 8
  %4 = alloca i32, align 4
  store ptr %0, ptr %3, align 8, !tbaa !56
  store i32 %1, ptr %4, align 4, !tbaa !9
  %5 = load ptr, ptr %3, align 8
  %6 = getelementptr inbounds nuw %class.btAlignedObjectArray.2, ptr %5, i32 0, i32 4
  %7 = load ptr, ptr %6, align 8, !tbaa !106
  %8 = load i32, ptr %4, align 4, !tbaa !9
  %9 = sext i32 %8 to i64
  %10 = getelementptr inbounds i32, ptr %7, i64 %9
  ret ptr %10
}

; Function Attrs: inlinehint mustprogress nounwind uwtable
define linkonce_odr dso_local noundef i32 @_ZNK20btAlignedObjectArrayIN20btBatchedConstraints5RangeEE4sizeEv(ptr noundef nonnull align 8 dereferenceable(25) %0) #4 comdat align 2 {
  %2 = alloca ptr, align 8
  store ptr %0, ptr %2, align 8, !tbaa !124
  %3 = load ptr, ptr %2, align 8
  %4 = getelementptr inbounds nuw %class.btAlignedObjectArray.6, ptr %3, i32 0, i32 1
  %5 = load i32, ptr %4, align 4, !tbaa !126
  ret i32 %5
}

; Function Attrs: mustprogress nounwind uwtable
define linkonce_odr dso_local void @_ZN15JointSolverLoopC2EP37btSequentialImpulseConstraintSolverMtPK20btBatchedConstraintsi(ptr noundef nonnull align 8 dereferenceable(28) %0, ptr noundef %1, ptr noundef %2, i32 noundef %3) unnamed_addr #1 comdat align 2 {
  %5 = alloca ptr, align 8
  %6 = alloca ptr, align 8
  %7 = alloca ptr, align 8
  %8 = alloca i32, align 4
  store ptr %0, ptr %5, align 8, !tbaa !290
  store ptr %1, ptr %6, align 8, !tbaa !12
  store ptr %2, ptr %7, align 8, !tbaa !51
  store i32 %3, ptr %8, align 4, !tbaa !9
  %9 = load ptr, ptr %5, align 8
  call void @_ZN18btIParallelSumBodyC2Ev(ptr noundef nonnull align 8 dereferenceable(8) %9) #16
  store ptr getelementptr inbounds inrange(-16, 24) ({ [5 x ptr] }, ptr @_ZTV15JointSolverLoop, i32 0, i32 0, i32 2), ptr %9, align 8, !tbaa !14
  %10 = load ptr, ptr %6, align 8, !tbaa !12
  %11 = getelementptr inbounds nuw %struct.JointSolverLoop, ptr %9, i32 0, i32 1
  store ptr %10, ptr %11, align 8, !tbaa !292
  %12 = load ptr, ptr %7, align 8, !tbaa !51
  %13 = getelementptr inbounds nuw %struct.JointSolverLoop, ptr %9, i32 0, i32 2
  store ptr %12, ptr %13, align 8, !tbaa !294
  %14 = load i32, ptr %8, align 4, !tbaa !9
  %15 = getelementptr inbounds nuw %struct.JointSolverLoop, ptr %9, i32 0, i32 3
  store i32 %14, ptr %15, align 8, !tbaa !295
  ret void
}

; Function Attrs: mustprogress uwtable
define dso_local noundef float @_ZN37btSequentialImpulseConstraintSolverMt26resolveAllJointConstraintsEi(ptr noundef nonnull align 8 dereferenceable(920) %0, i32 noundef %1) unnamed_addr #2 align 2 personality ptr @__gxx_personality_v0 {
  %3 = alloca ptr, align 8
  %4 = alloca i32, align 4
  %5 = alloca %class.CProfileSample, align 1
  %6 = alloca ptr, align 8
  %7 = alloca %struct.JointSolverLoop, align 8
  %8 = alloca ptr, align 8
  %9 = alloca i32, align 4
  %10 = alloca float, align 4
  %11 = alloca i32, align 4
  %12 = alloca i32, align 4
  %13 = alloca ptr, align 8
  %14 = alloca i32, align 4
  store ptr %0, ptr %3, align 8, !tbaa !12
  store i32 %1, ptr %4, align 4, !tbaa !9
  %15 = load ptr, ptr %3, align 8
  call void @llvm.lifetime.start.p0(i64 1, ptr %5) #16
  call void @_ZN14CProfileSampleC1EPKc(ptr noundef nonnull align 1 dereferenceable(1) %5, ptr noundef @.str.15)
  call void @llvm.lifetime.start.p0(i64 8, ptr %6) #16
  %16 = getelementptr inbounds nuw %class.btSequentialImpulseConstraintSolverMt, ptr %15, i32 0, i32 2
  store ptr %16, ptr %6, align 8, !tbaa !51
  call void @llvm.lifetime.start.p0(i64 32, ptr %7) #16
  %17 = load ptr, ptr %6, align 8, !tbaa !51
  %18 = load i32, ptr %4, align 4, !tbaa !9
  invoke void @_ZN15JointSolverLoopC2EP37btSequentialImpulseConstraintSolverMtPK20btBatchedConstraintsi(ptr noundef nonnull align 8 dereferenceable(28) %7, ptr noundef %15, ptr noundef %17, i32 noundef %18)
          to label %19 unwind label %28

19:                                               ; preds = %2
  call void @llvm.lifetime.start.p0(i64 4, ptr %10) #16
  store float 0.000000e+00, ptr %10, align 4, !tbaa !85
  call void @llvm.lifetime.start.p0(i64 4, ptr %11) #16
  store i32 0, ptr %11, align 4, !tbaa !9
  br label %20

20:                                               ; preds = %59, %19
  %21 = load i32, ptr %11, align 4, !tbaa !9
  %22 = load ptr, ptr %6, align 8, !tbaa !51
  %23 = getelementptr inbounds nuw %struct.btBatchedConstraints, ptr %22, i32 0, i32 2
  %24 = invoke noundef i32 @_ZNK20btAlignedObjectArrayIN20btBatchedConstraints5RangeEE4sizeEv(ptr noundef nonnull align 8 dereferenceable(25) %23)
          to label %25 unwind label %32

25:                                               ; preds = %20
  %26 = icmp slt i32 %21, %24
  br i1 %26, label %36, label %27

27:                                               ; preds = %25
  call void @llvm.lifetime.end.p0(i64 4, ptr %11) #16
  br label %77

28:                                               ; preds = %2
  %29 = landingpad { ptr, i32 }
          cleanup
  %30 = extractvalue { ptr, i32 } %29, 0
  store ptr %30, ptr %8, align 8
  %31 = extractvalue { ptr, i32 } %29, 1
  store i32 %31, ptr %9, align 4
  br label %79

32:                                               ; preds = %20
  %33 = landingpad { ptr, i32 }
          cleanup
  %34 = extractvalue { ptr, i32 } %33, 0
  store ptr %34, ptr %8, align 8
  %35 = extractvalue { ptr, i32 } %33, 1
  store i32 %35, ptr %9, align 4
  br label %76

36:                                               ; preds = %25
  call void @llvm.lifetime.start.p0(i64 4, ptr %12) #16
  %37 = load ptr, ptr %6, align 8, !tbaa !51
  %38 = getelementptr inbounds nuw %struct.btBatchedConstraints, ptr %37, i32 0, i32 4
  %39 = load i32, ptr %11, align 4, !tbaa !9
  %40 = invoke noundef nonnull align 4 dereferenceable(4) ptr @_ZNK20btAlignedObjectArrayIiEixEi(ptr noundef nonnull align 8 dereferenceable(25) %38, i32 noundef %39)
          to label %41 unwind label %62

41:                                               ; preds = %36
  %42 = load i32, ptr %40, align 4, !tbaa !9
  store i32 %42, ptr %12, align 4, !tbaa !9
  call void @llvm.lifetime.start.p0(i64 8, ptr %13) #16
  %43 = load ptr, ptr %6, align 8, !tbaa !51
  %44 = getelementptr inbounds nuw %struct.btBatchedConstraints, ptr %43, i32 0, i32 2
  %45 = load i32, ptr %12, align 4, !tbaa !9
  %46 = invoke noundef nonnull align 4 dereferenceable(8) ptr @_ZNK20btAlignedObjectArrayIN20btBatchedConstraints5RangeEEixEi(ptr noundef nonnull align 8 dereferenceable(25) %44, i32 noundef %45)
          to label %47 unwind label %66

47:                                               ; preds = %41
  store ptr %46, ptr %13, align 8, !tbaa !111
  call void @llvm.lifetime.start.p0(i64 4, ptr %14) #16
  store i32 1, ptr %14, align 4, !tbaa !9
  %48 = load ptr, ptr %13, align 8, !tbaa !111
  %49 = getelementptr inbounds nuw %"struct.btBatchedConstraints::Range", ptr %48, i32 0, i32 0
  %50 = load i32, ptr %49, align 4, !tbaa !112
  %51 = load ptr, ptr %13, align 8, !tbaa !111
  %52 = getelementptr inbounds nuw %"struct.btBatchedConstraints::Range", ptr %51, i32 0, i32 1
  %53 = load i32, ptr %52, align 4, !tbaa !114
  %54 = load i32, ptr %14, align 4, !tbaa !9
  %55 = invoke noundef float @_Z13btParallelSumiiiRK18btIParallelSumBody(i32 noundef %50, i32 noundef %53, i32 noundef %54, ptr noundef nonnull align 8 dereferenceable(8) %7)
          to label %56 unwind label %70

56:                                               ; preds = %47
  %57 = load float, ptr %10, align 4, !tbaa !85
  %58 = fadd float %57, %55
  store float %58, ptr %10, align 4, !tbaa !85
  call void @llvm.lifetime.end.p0(i64 4, ptr %14) #16
  call void @llvm.lifetime.end.p0(i64 8, ptr %13) #16
  call void @llvm.lifetime.end.p0(i64 4, ptr %12) #16
  br label %59

59:                                               ; preds = %56
  %60 = load i32, ptr %11, align 4, !tbaa !9
  %61 = add nsw i32 %60, 1
  store i32 %61, ptr %11, align 4, !tbaa !9
  br label %20, !llvm.loop !289

62:                                               ; preds = %36
  %63 = landingpad { ptr, i32 }
          cleanup
  %64 = extractvalue { ptr, i32 } %63, 0
  store ptr %64, ptr %8, align 8
  %65 = extractvalue { ptr, i32 } %63, 1
  store i32 %65, ptr %9, align 4
  br label %75

66:                                               ; preds = %41
  %67 = landingpad { ptr, i32 }
          cleanup
  %68 = extractvalue { ptr, i32 } %67, 0
  store ptr %68, ptr %8, align 8
  %69 = extractvalue { ptr, i32 } %67, 1
  store i32 %69, ptr %9, align 4
  br label %74

70:                                               ; preds = %47
  %71 = landingpad { ptr, i32 }
          cleanup
  %72 = extractvalue { ptr, i32 } %71, 0
  store ptr %72, ptr %8, align 8
  %73 = extractvalue { ptr, i32 } %71, 1
  store i32 %73, ptr %9, align 4
  call void @llvm.lifetime.end.p0(i64 4, ptr %14) #16
  br label %74

74:                                               ; preds = %70, %66
  call void @llvm.lifetime.end.p0(i64 8, ptr %13) #16
  br label %75

75:                                               ; preds = %74, %62
  call void @llvm.lifetime.end.p0(i64 4, ptr %12) #16
  br label %76

76:                                               ; preds = %75, %32
  call void @llvm.lifetime.end.p0(i64 4, ptr %11) #16
  call void @llvm.lifetime.end.p0(i64 4, ptr %10) #16
  call void @_ZN18btIParallelSumBodyD2Ev(ptr noundef nonnull align 8 dereferenceable(28) %7) #16
  br label %79

77:                                               ; preds = %27
  %78 = load float, ptr %10, align 4, !tbaa !85
  call void @llvm.lifetime.end.p0(i64 4, ptr %10) #16
  call void @_ZN18btIParallelSumBodyD2Ev(ptr noundef nonnull align 8 dereferenceable(28) %7) #16
  call void @llvm.lifetime.end.p0(i64 32, ptr %7) #16
  call void @llvm.lifetime.end.p0(i64 8, ptr %6) #16
  call void @_ZN14CProfileSampleD1Ev(ptr noundef nonnull align 1 dereferenceable(1) %5) #16
  call void @llvm.lifetime.end.p0(i64 1, ptr %5) #16
  ret float %78

79:                                               ; preds = %76, %28
  call void @llvm.lifetime.end.p0(i64 32, ptr %7) #16
  call void @llvm.lifetime.end.p0(i64 8, ptr %6) #16
  call void @_ZN14CProfileSampleD1Ev(ptr noundef nonnull align 1 dereferenceable(1) %5) #16
  call void @llvm.lifetime.end.p0(i64 1, ptr %5) #16
  br label %80

80:                                               ; preds = %79
  %81 = load ptr, ptr %8, align 8
  %82 = load i32, ptr %9, align 4
  %83 = insertvalue { ptr, i32 } poison, ptr %81, 0
  %84 = insertvalue { ptr, i32 } %83, i32 %82, 1
  resume { ptr, i32 } %84
}