; Function Attrs: mustprogress uwtable
define dso_local noundef float @_ZN37btSequentialImpulseConstraintSolverMt26resolveAllJointConstraintsEi(ptr noundef nonnull align 8 dereferenceable(920) %0, i32 noundef %1) unnamed_addr #0 align 2 personality ptr @__gxx_personality_v0 {
  %3 = alloca %class.CProfileSample, align 1
  %4 = alloca %struct.JointSolverLoop, align 8
  call void @llvm.lifetime.start.p0(i64 1, ptr nonnull %3) #16
  call void @_ZN14CProfileSampleC1EPKc(ptr noundef nonnull align 1 dereferenceable(1) %3, ptr noundef nonnull @.str.15)
  %5 = getelementptr inbounds nuw i8, ptr %0, i64 576
  call void @llvm.lifetime.start.p0(i64 32, ptr nonnull %4) #16
  store ptr getelementptr inbounds nuw inrange(-16, 24) (i8, ptr @_ZTV15JointSolverLoop, i64 16), ptr %4, align 8, !tbaa !4
  %6 = getelementptr inbounds nuw i8, ptr %4, i64 8
  store ptr %0, ptr %6, align 8, !tbaa !250
  %7 = getelementptr inbounds nuw i8, ptr %4, i64 16
  store ptr %5, ptr %7, align 8, !tbaa !252
  %8 = getelementptr inbounds nuw i8, ptr %4, i64 24
  store i32 %1, ptr %8, align 8, !tbaa !253
  %9 = getelementptr inbounds nuw i8, ptr %0, i64 644
  %10 = load i32, ptr %9, align 4, !tbaa !23
  %11 = icmp sgt i32 %10, 0
  br i1 %11, label %.lr.ph, label %._crit_edge

.lr.ph:                                           ; preds = %2
  %12 = getelementptr inbounds nuw i8, ptr %0, i64 720
  %13 = getelementptr inbounds nuw i8, ptr %0, i64 656
  br label %14

._crit_edge:                                      ; preds = %25, %2
  %.0.lcssa = phi float [ 0.000000e+00, %2 ], [ %26, %25 ]
  call void @llvm.lifetime.end.p0(i64 32, ptr nonnull %4) #16
  call void @_ZN14CProfileSampleD1Ev(ptr noundef nonnull align 1 dereferenceable(1) %3) #16
  call void @llvm.lifetime.end.p0(i64 1, ptr nonnull %3) #16
  ret float %.0.lcssa

14:                                               ; preds = %.lr.ph, %25
  %indvars.iv = phi i64 [ 0, %.lr.ph ], [ %indvars.iv.next, %25 ]
  %.019 = phi float [ 0.000000e+00, %.lr.ph ], [ %26, %25 ]
  %15 = load ptr, ptr %12, align 8, !tbaa !15
  %16 = getelementptr inbounds nuw i32, ptr %15, i64 %indvars.iv
  %17 = load i32, ptr %16, align 4, !tbaa !67
  %18 = load ptr, ptr %13, align 8, !tbaa !22
  %19 = sext i32 %17 to i64
  %20 = getelementptr inbounds %"struct.btBatchedConstraints::Range", ptr %18, i64 %19
  %21 = load i32, ptr %20, align 4, !tbaa !103
  %22 = getelementptr inbounds nuw i8, ptr %20, i64 4
  %23 = load i32, ptr %22, align 4, !tbaa !105
  %24 = invoke noundef float @_Z13btParallelSumiiiRK18btIParallelSumBody(i32 noundef %21, i32 noundef %23, i32 noundef 1, ptr noundef nonnull align 8 dereferenceable(8) %4)
          to label %25 unwind label %30

25:                                               ; preds = %14
  %26 = fadd float %.019, %24
  %indvars.iv.next = add nuw nsw i64 %indvars.iv, 1
  %27 = load i32, ptr %9, align 4, !tbaa !23
  %28 = sext i32 %27 to i64
  %29 = icmp slt i64 %indvars.iv.next, %28
  br i1 %29, label %14, label %._crit_edge, !llvm.loop !254

30:                                               ; preds = %14
  %31 = landingpad { ptr, i32 }
          cleanup
  call void @llvm.lifetime.end.p0(i64 32, ptr nonnull %4) #16
  call void @_ZN14CProfileSampleD1Ev(ptr noundef nonnull align 1 dereferenceable(1) %3) #16
  call void @llvm.lifetime.end.p0(i64 1, ptr nonnull %3) #16
  resume { ptr, i32 } %31
}